; Function Attrs: mustprogress nofree norecurse nosync nounwind willreturn memory(argmem: readwrite) uwtable
define internal range(i32 -12, 1) i32 @IFN_Previous_Line(ptr noundef captures(none) %0) #8 {
  %2 = getelementptr inbounds nuw i8, ptr %0, i64 8
  %3 = load i32, ptr %2, align 8, !tbaa !17
  %4 = add nsw i32 %3, -1
  store i32 %4, ptr %2, align 8, !tbaa !17
  %5 = icmp slt i32 %3, 1
  br i1 %5, label %6, label %7

6:                                                ; preds = %1
  store i32 %3, ptr %2, align 8, !tbaa !17
  br label %9

7:                                                ; preds = %1
  %8 = getelementptr inbounds nuw i8, ptr %0, i64 12
  store i32 0, ptr %8, align 4, !tbaa !18
  br label %9

9:                                                ; preds = %7, %6
  %.0 = phi i32 [ -12, %6 ], [ 0, %7 ]
  ret i32 %.0
}